(lp0
(lp1
(lp2
VFView reLife\u4e1a\u52a1\u89c6\u9891\u7b80\u4ecb.mp4_\u514d\u8d39\u9ad8\u901f\u4e0b\u8f7d|\u767e\u5ea6\u4e91\u7f51\u76d8-\u5206\u4eab\u65e0\u9650\u5236
p3
aV[ReLIFE][098][\u4e0d\u51c6\u78b0].zip_\u514d\u8d39\u9ad8\u901f\u4e0b\u8f7d - \u767e\u5ea6\u4e91\u7f51\u76d8
p4
aV[ReLIFE][050][\u4e0d\u662f\u521d\u6b21\u898b\u9762\u5594].zip_\u514d\u8d39\u9ad8\u901f\u4e0b\u8f7d - \u767e\u5ea6\u4e91\u7f51\u76d8
p5
aVRe\uff1aLife in a different world from zero 01.mp4|\u767e\u5ea6\u4e91\u7f51\u76d8
p6
aVNoa relife.aiff_\u514d\u8d39\u9ad8\u901f\u4e0b\u8f7d|\u767e\u5ea6\u4e91\u7f51\u76d8-\u5206\u4eab\u65e0\u9650\u5236
p7
aVRe\uff1aLife in a different world from zero~01.mp4\u7b49_\u514d\u8d39\u9ad8\u901f\u4e0b\u8f7d|\u767e\u5ea6 ...
p8
aVUma Thurman,David Carradine,Julie Dreyfus - You&#39;re My Wicked ...
p9
aVSECTION III ATTACHEMENTS\u7b49_\u514d\u8d39\u9ad8\u901f\u4e0b\u8f7d|\u767e\u5ea6\u4e91\u7f51\u76d8-\u5206\u4eab\u65e0 ...
p10
aVSECTION III ATTACHEMENTS\u7b49_\u514d\u8d39\u9ad8\u901f\u4e0b\u8f7d|\u767e\u5ea6\u4e91\u7f51\u76d8-\u5206\u4eab\u65e0 ...
p11
aVRe\uff1a\u4ece\u96f6\u5f00\u59cb\u7684\u5f02\u4e16\u754c\u751f\u6d3b\u3010\u66f4\u65b0\u81f31\u8bdd\u3011 - \u767e\u5ea6\u4e91\u4e2a\u4eba\u4e13\u8f91- \u4e91\u4e0a\u7684\u65e5\u5b50 ...
p12
aa(lp13
Vhttp://45.32.249.213/ss/?a=url&k=9bfb3279&u=aHR0cDovL3l1bi5iYWlkdS5jb20vd2FwL2xpbms@dWs9MzgxNDEzMDM0NSZzaGFyZWlkPTMzOTgyMzA4JnRoaXJkPTA=&t=RlZpZXcgcmVMaWZl5Lia5Yqh6KeG6aKR566A5LuLLm1wNF@lhY3otLnpq5jpgJ@kuIvovb1855m!5bqm5LqR572R55uYLeWIhuS6q!aXoOmZkOWItg==&s=cmVsaWZl
p14
aVhttp://45.32.249.213/ss/?a=url&k=6cdf2931&u=aHR0cDovL3Bhbi5iYWlkdS5jb20vd2FwL3NoYXJldmlldz8mc2hhcmVpZD0xNzA3MTE3MzU4JnVrPTMwNzA1NzYwNzYmZGlyPSUyRiVFNiVCQyVBQiVFNyU5NCVCQiUyRiU1QiVFOSU4NyU4RCVFNyU5NCU5RiVFOCVBRSVBMSVFNSU4OCU5MihSZUxJRkUpJTVEJTVCJUU1JUE0JTlDJUU1JUFFJUI1JUU4JThEJTg5JTVEJnBhZ2U9MSZudW09MjAmZnNpZD01NjYwMjc3NzE2MDUzMTEmdGhpcmQ9MA==&t=W1JlTElGRV1bMDk4XVvkuI3lh4bnorBdLnppcF@lhY3otLnpq5jpgJ@kuIvovb0gLSDnmb7luqbkupHnvZHnm5g=&s=cmVsaWZl
p15
aVhttp://45.32.249.213/ss/?a=url&k=46c35b74&u=aHR0cDovL3Bhbi5iYWlkdS5jb20vd2FwL3NoYXJldmlldz8mc2hhcmVpZD0xNzA3MTE3MzU4JnVrPTMwNzA1NzYwNzYmZGlyPSUyRiVFNiVCQyVBQiVFNyU5NCVCQiUyRiU1QiVFOSU4NyU4RCVFNyU5NCU5RiVFOCVBRSVBMSVFNSU4OCU5MihSZUxJRkUpJTVEJTVCJUU1JUE0JTlDJUU1JUFFJUI1JUU4JThEJTg5JTVEJnBhZ2U9NCZudW09MjAmZnNpZD05MDk2ODQ2NDE2NjIxMjImdGhpcmQ9MA==&t=W1JlTElGRV1bMDUwXVvkuI3mmK@liJ3mrKHopovpnaLllpRdLnppcF@lhY3otLnpq5jpgJ@kuIvovb0gLSDnmb7luqbkupHnvZHnm5g=&s=cmVsaWZl
p16
aVhttp://45.32.249.213/ss/?a=url&k=5f5a4d61&u=aHR0cDovL3l1bi5iYWlkdS5jb20vd2FwL2FsYnVtL2ZpbGU@dWs9MzU3NzYzMDA0MiZhbGJ1bV9pZD0xOTkzMzMxNDk3MDUyNzc2ODM4JmZzaWQ9Mjk2MDI2NzAxNDgyMjA0&t=UmXvvJpMaWZlIGluIGEgZGlmZmVyZW50IHdvcmxkIGZyb20gemVybyAwMS5tcDR855m!5bqm5LqR572R55uY&s=cmVsaWZl
p17
aVhttp://45.32.249.213/ss/?a=url&k=55569bfb&u=aHR0cDovL3l1bi5iYWlkdS5jb20vd2FwL3NoYXJldmlldz8mc2hhcmVpZD0xNTk2NjEyNjkxJnVrPTI4NjkxODgxMzkmZGlyPSUyRnhwMm1hYyUyRiVFNiU4NCU5RiVFOCU5OSVCRSVFNSU4OCVBOSVFNiVBQyVCOCVFNSVCRCU5MiVFNSU4QSU5RSUyRlJlY29yZCZwYWdlPTEmbnVtPTIwJmZzaWQ9NTgzMjI0Mzg5NDEwMDA3JnRoaXJkPTA=&t=Tm9hIHJlbGlmZS5haWZmX!WFjei0uemrmOmAn!S4i!i9vXznmb7luqbkupHnvZHnm5gt5YiG5Lqr5peg6ZmQ5Yi2&s=cmVsaWZl
p18
aVhttp://45.32.249.213/ss/?a=url&k=0aa201cb&u=aHR0cDovL3l1bi5iYWlkdS5jb20vd2FwL2xpbms@c2hhcmVpZD0xMzIyNjYwODczJnVrPTI4NDAzODkzMjUmdGhpcmQ9MSZkaXI9JTJGJUU1JTlCJTlCJUU2JTlDJTg4JUU2JTk2JUIwJUU3JTk1JUFBJTJGJTVCJUU1JTlCJTlCJUU2JTlDJTg4JUU2JTk2JUIwJUU3JTk1JUFBJTVEJUU2JTk4JTlGJUU2JTlDJTlGJUU0JUI4JTgwJTJGUmUlRUYlQkMlOUElRTQlQkIlOEUlRTklOUIlQjYlRTklOTYlOEIlRTUlQTclOEIlRTclOUElODQlRTclOTUlQjAlRTQlQjglOTYlRTclOTUlOEMlRTclOTQlOUYlRTYlQjQlQkIlMjAuJUUyJTk4JTk0JnBhZ2U9MQ==&t=UmXvvJpMaWZlIGluIGEgZGlmZmVyZW50IHdvcmxkIGZyb20gemVyb34wMS5tcDTnrYlf5YWN6LS56auY6YCf5LiL6L29fOeZvuW6piAuLi4=&s=cmVsaWZl
p19
aVhttp://45.32.249.213/ss/?a=url&k=dd3c3719&u=aHR0cDovL3l1bi5iYWlkdS5jb20vd2FwL3NoYXJldmlldz8mc2hhcmVpZD0xNDA4OTkwNjQzJnVrPTI4MTk1MzkxMDgmZGlyPSUyRiVFNiU5OCU4NiVFNiVCMSU4MCVDMiVCNyVFNSVBMSU5NCVFNCVCQyVBNiVFOCU5MiU4MiVFOCU5MCVCRCUyRiVFNSU4RSU5RiVFNSVBMyVCMCUyRktpbGwlMjBiaWxsJTIwVm9sLjEmcGFnZT0xJm51bT0yMCZmc2lkPTYzMTkzNjc4ODY4NDg2NyZ0aGlyZD0w&t=VW1hIFRodXJtYW4sRGF2aWQgQ2FycmFkaW5lLEp1bGllIERyZXlmdXMgLSBZb3UmIzM5O3JlIE15IFdpY2tlZCAuLi4=&s=cmVsaWZl
p20
aVhttp://45.32.249.213/ss/?a=url&k=6e10a337&u=aHR0cDovL3l1bi5iYWlkdS5jb20vd2FwL2xpbms@c2hhcmVpZD0xNTY3ODc2MTAxJnVrPTQxMzI4NjU0ODQmdGhpcmQ9MCZkaXI9JTJGJUU2JUIyJTk5JUU1JUI3JUI0JUU1JTkzJTg4JUU1JUI5JUIzJUU1JThGJUIwJUU4JUI1JTg0JUU2JTk2JTk5JTJGUHJvY3VyZW1lbnQlMjBEZXBhcnRtZW50JTJGUHJvY3VyZW1lbnQlMjBEZXBhcnRtZW50JTJGMTAuJTIwUHJvY3VyZW1lbnQlMkZQaXBpbmclMkZNUi1DQ0YtUFJWLTAwMSUyMC0lMjBQUkVTU1VSRSUyMFJFTElFRiUyMFZBTFZFJTJGMSUyME1SJTJGMjQwNyZwYWdlPTE=&t=U0VDVElPTiBJSUkgQVRUQUNIRU1FTlRT562JX!WFjei0uemrmOmAn!S4i!i9vXznmb7luqbkupHnvZHnm5gt5YiG5Lqr5pegIC4uLg==&s=cmVsaWZl
p21
aVhttp://45.32.249.213/ss/?a=url&k=ba1985d8&u=aHR0cDovL3l1bi5iYWlkdS5jb20vd2FwL2xpbms@c2hhcmVpZD0xNTY3ODc2MTAxJnVrPTQxMzI4NjU0ODQmdGhpcmQ9MCZkaXI9JTJGJUU2JUIyJTk5JUU1JUI3JUI0JUU1JTkzJTg4JUU1JUI5JUIzJUU1JThGJUIwJUU4JUI1JTg0JUU2JTk2JTk5JTJGUHJvY3VyZW1lbnQlMjBEZXBhcnRtZW50JTJGUHJvY3VyZW1lbnQlMjBEZXBhcnRtZW50JTJGMTAuJTIwUHJvY3VyZW1lbnQlMkZQaXBpbmclMkZNUi1DQ0YtUFJWLTAwMiUyMC0lMjBQUkVTU1VSRSUyMFZBQ1VVTSUyMFJFTElFRiUyMFZBTFZFJTJGMSUyME1SJTJGMjQwOCZwYWdlPTE=&t=U0VDVElPTiBJSUkgQVRUQUNIRU1FTlRT562JX!WFjei0uemrmOmAn!S4i!i9vXznmb7luqbkupHnvZHnm5gt5YiG5Lqr5pegIC4uLg==&s=cmVsaWZl
p22
aVhttp://45.32.249.213/ss/?a=url&k=4f683643&u=aHR0cDovL3l1bi5iYWlkdS5jb20vd2FwL2FsYnVtL2luZm8@dWs9MzU3NzYzMDA0MiZhbGJ1bV9pZD0xOTkzMzMxNDk3MDUyNzc2ODM4JnRoaXJkPTA=&t=UmXvvJrku47pm7blvIDlp4vnmoTlvILkuJbnlYznlJ@mtLvjgJDmm7TmlrDoh7Mx6K!d44CRIC0g55m!5bqm5LqR5Liq5Lq65LiT6L6RLSDkupHkuIrnmoTml6XlrZAgLi4u&s=cmVsaWZl
p23
aaa(lp24
(lp25
V\u767e\u5ea6\u4e91 \u7f51\u76d8-sage9577\u7684\u5206\u4eab
p26
aV\u767e\u5ea6\u4e91\u7f51\u76d8-sage9577\u7684\u5206\u4eab
p27
aa(lp28
Vhttp://45.32.249.213/ss/?a=url&k=d8a3edd0&u=aHR0cHM6Ly9wYW4uYmFpZHUuY29tL3dhcC9zaGFyZS9ob21lP3VrPTU0MTY3OTEyMCZhbXA7&t=55m!5bqm5LqRIOe9keebmC1zYWdlOTU3N!eahOWIhuS6qw==&s=cmVsaWZl
p29
aVhttp://45.32.249.213/ss/?a=url&k=6d00eff0&u=aHR0cDovL3Bhbi5iYWlkdS5jb20vc2hhcmUvaG9tZT91az01NDE2NzkxMjAmdmlldz1zaGFyZQ==&t=55m!5bqm5LqR572R55uYLXNhZ2U5NTc355qE5YiG5Lqr&s=cmVsaWZl
p30
aaa(lp31
(lp32
a(lp33
aa(lp34
(lp35
a(lp36
aa(lp37
(lp38
a(lp39
aa.