(lp0
(lp1
(lp2
V\u300a\u9b54\u517d\u300b\u7269\u6599\u5305_\u514d\u8d39\u9ad8\u901f\u4e0b\u8f7d|\u767e\u5ea6\u4e91\u7f51\u76d8-\u5206\u4eab\u65e0\u9650\u5236
p3
aV\u900d\u9065\u9b54\u517d\u5ba2\u6237\u7aef.z01\u7b49_\u514d\u8d39\u9ad8\u901f\u4e0b\u8f7d|\u767e\u5ea6\u4e91\u7f51\u76d8-\u5206\u4eab\u65e0\u9650\u5236
p4
aV\u9b54\u517d.[TC720P\u82f1\u8bed\u4e2d\u5b57].[2016].mkv
p5
aV\u6b66\u6613\u9b54\u517d1.123\u7eaf\u51c0\u5ba2\u6237\u7aef.part1.rar\u7b49_\u514d\u8d39\u9ad8\u901f\u4e0b\u8f7d|\u767e\u5ea6\u4e91\u7f51\u76d8-\u5206\u4eab ...
p6
aV\u9b54\u517d\u4e16\u754c2016.mkv_\u514d\u8d39\u9ad8\u901f\u4e0b\u8f7d|\u767e\u5ea6\u4e91\u7f51\u76d8-\u5206\u4eab\u65e0\u9650\u5236
p7
aV10.\u9b54\u517d\u5b98\u65b9\u77ed\u7bc7\u5c0f\u8bf4\u300a\u8bc5\u5492\u4e4b\u8def\u300b.txt_\u514d\u8d39\u9ad8\u901f\u4e0b\u8f7d|\u767e\u5ea6\u4e91\u7f51\u76d8-\u5206\u4eab\u65e0 ...
p8
aV\u9b54\u517d3.3.5\u63d2\u4ef6\u53cd\u548c\u8c10.zip_\u514d\u8d39\u9ad8\u901f\u4e0b\u8f7d|\u767e\u5ea6\u4e91\u7f51\u76d8-\u5206\u4eab\u65e0\u9650\u5236
p9
aV60\u6000\u65e7\u9b54\u517d.7z\u7b49_\u514d\u8d39\u9ad8\u901f\u4e0b\u8f7d|\u767e\u5ea6\u4e91\u7f51\u76d8-\u5206\u4eab\u65e0\u9650\u5236
p10
aV\u9b54\u517d\u4e16\u754c7.\u65c5\u9986\u97f3\u4e50\u96c6(flac).rar_\u514d\u8d39\u9ad8\u901f\u4e0b\u8f7d|\u767e\u5ea6\u4e91\u7f51\u76d8-\u5206\u4eab\u65e0\u9650\u5236
p11
aV\u60b2\u516e\u9b54\u517dARTE Documentaire Behemoth Le dragon noir TVripHD ...
p12
aa(lp13
Vhttp://45.32.249.213/ss/?a=url&k=ea3994b0&u=aHR0cHM6Ly95dW4uYmFpZHUuY29tL3dhcC9saW5rP3NoYXJlaWQ9MTQwMDQzNzYyNiZ1az0xNzY1NDQ2Njk5JnRoaXJkPTQmcGFnZT0xJmRpcj0vJUU4JUJGJTkxJUU2JTlDJTlGJUU3JUI0JUEwJUU2JTlEJTkwLzIwMTYlRTUlQjklQjQ2JUU2JTlDJTg4LzIwMTYwNjA4JUU5JUFEJTk0JUU1JTg1JUJE&t=44CK6a2U5YW944CL54mp5paZ5YyFX!WFjei0uemrmOmAn!S4i!i9vXznmb7luqbkupHnvZHnm5gt5YiG5Lqr5peg6ZmQ5Yi2&s=6a2U5YW9
p14
aVhttp://45.32.249.213/ss/?a=url&k=1877fe8b&u=aHR0cDovL3l1bi5iYWlkdS5jb20vd2FwL2xpbms@c2hhcmVpZD0zODQ2NTE2NjQ1JnVrPTUwNjkzNTM1MCZ0aGlyZD0wJmRpcj0lMkZCYWslMkZXT1clMkZYWVdPVyUyRiVFOSU4MCU4RCVFOSU4MSVBNSVFOSVBRCU5NCVFNSU4NSVCRCVFNSVBRSVBMiVFNiU4OCVCNyVFNyVBQiVBRiZwYWdlPTE=&t=6YCN6YGl6a2U5YW95a6i5oi356uvLnowMeetiV@lhY3otLnpq5jpgJ@kuIvovb1855m!5bqm5LqR572R55uYLeWIhuS6q!aXoOmZkOWItg==&s=6a2U5YW9
p15
aVhttp://45.32.249.213/ss/?a=url&k=bf8288c6&u=aHR0cHM6Ly9wYW4uYmFpZHUuY29tL3dhcC9saW5rP3VrPTM0MDkzMDAwOTMmc2hhcmVpZD0zNTQyMDk5NzgxJnRoaXJkPTA=&t=6a2U5YW9LltUQzcyMFDoi7Hor63kuK3lrZddLlsyMDE2XS5ta3Y=&s=6a2U5YW9
p16
aVhttp://45.32.249.213/ss/?a=url&k=520a6b27&u=aHR0cDovL3l1bi5iYWlkdS5jb20vd2FwL2xpbms@c2hhcmVpZD0yMzcyNzQ5ODY3JnVrPTk0MDE2Mjg0NCZ0aGlyZD0wJmRpcj0lMkZXT1clMkYlRTYlQUQlQTYlRTYlOTglOTM2MCVFNiU4MCU4MCVFNiU5NyVBNyVFOSVBRCU5NCVFNSU4NSVCRCVFNyVCQSVBRiVFNSU4NyU4MCVFNSVBRSVBMiVFNiU4OCVCNyVFNyVBQiVBRiZwYWdlPTE=&t=5q2m5piT6a2U5YW9MS4xMjPnuq@lh4DlrqLmiLfnq68ucGFydDEucmFy562JX!WFjei0uemrmOmAn!S4i!i9vXznmb7luqbkupHnvZHnm5gt5YiG5LqrIC4uLg==&s=6a2U5YW9
p17
aVhttp://45.32.249.213/ss/?a=url&k=54c35e05&u=aHR0cHM6Ly9wYW4uYmFpZHUuY29tL3dhcC9saW5rP3VrPTEwNTc4Mjk4NTUmc2hhcmVpZD0zOTc4ODEzMjA0JnRoaXJkPTA=&t=6a2U5YW95LiW55WMMjAxNi5ta3Zf5YWN6LS56auY6YCf5LiL6L29fOeZvuW6puS6kee9keebmC3liIbkuqvml6DpmZDliLY=&s=6a2U5YW9
p18
aVhttp://45.32.249.213/ss/?a=url&k=64944b3a&u=aHR0cDovL3Bhbi5iYWlkdS5jb20vd2FwL3NoYXJldmlldz8mc2hhcmVpZD0yMTI4NTY2ODEmdWs9MzA0MDUyMTE3NyZkaXI9JTJGJUU5JUFEJTk0JUU1JTg1JUJEJUU0JUI4JTk2JUU3JTk1JThDJUU1JUIwJThGJUU4JUFGJUI0JUU1JUE0JUE3JUU1JTg1JUE4JnBhZ2U9MiZudW09MjAmZnNpZD01NDY0ODM1MTA1NTM2MjAmdGhpcmQ9MQ==&t=MTAu6a2U5YW95a6Y5pa555!t56!H5bCP6K!044CK6K!F5ZKS5LmL6Lev44CLLnR4dF@lhY3otLnpq5jpgJ@kuIvovb1855m!5bqm5LqR572R55uYLeWIhuS6q!aXoCAuLi4=&s=6a2U5YW9
p19
aVhttp://45.32.249.213/ss/?a=url&k=11adfe0f&u=aHR0cDovL3l1bi5iYWlkdS5jb20vd2FwL2xpbms@dWs9MjcwNTI1Mzg2MSZzaGFyZWlkPTU1MDM3NDQ4NCZ0aGlyZD0z&t=6a2U5YW9My4zLjXmj5Lku7blj43lkozosJAuemlwX!WFjei0uemrmOmAn!S4i!i9vXznmb7luqbkupHnvZHnm5gt5YiG5Lqr5peg6ZmQ5Yi2&s=6a2U5YW9
p20
aVhttp://45.32.249.213/ss/?a=url&k=3c4f7a8c&u=aHR0cDovL3l1bi5iYWlkdS5jb20vd2FwL2xpbms@c2hhcmVpZD0yMTY0MDk2NzE2JnVrPTEzNDUzNjU4MDMmdGhpcmQ9MSZkaXI9JTJGJUU5JUFEJTk0JUU1JTg1JUJEJUU3JUE3JTgxJUU2JTlDJThENjAmcGFnZT0x&t=NjDmgIDml6fprZTlhb0uN3rnrYlf5YWN6LS56auY6YCf5LiL6L29fOeZvuW6puS6kee9keebmC3liIbkuqvml6DpmZDliLY=&s=6a2U5YW9
p21
aVhttp://45.32.249.213/ss/?a=url&k=7f5002e7&u=aHR0cDovL3l1bi5iYWlkdS5jb20vd2FwL3NoYXJldmlldz8mc2hhcmVpZD05MTI4NzExNzgmdWs9ODA3OTIzMjcyJmRpcj0lMkYlRTklQUQlOTQlRTUlODUlQkQlRTQlQjglOTYlRTclOTUlOEMlRTUlOEUlOUYlRTUlQTMlQjAlRTUlQTQlQTclRTclQTIlOUYmcGFnZT0xJm51bT0yMCZmc2lkPTE1ODMyMTcxODImdGhpcmQ9MA==&t=6a2U5YW95LiW55WMNy7ml4Xppobpn7PkuZDpm4YoZmxhYykucmFyX!WFjei0uemrmOmAn!S4i!i9vXznmb7luqbkupHnvZHnm5gt5YiG5Lqr5peg6ZmQ5Yi2&s=6a2U5YW9
p22
aVhttp://45.32.249.213/ss/?a=url&k=97a79140&u=aHR0cDovL3l1bi5iYWlkdS5jb20vd2FwL2xpbms@dWs9MjMwMzk1MDUzOCZzaGFyZWlkPTMzOTk4Njk2NSZ0aGlyZD00&t=5oKy5YWu6a2U5YW9QVJURSBEb2N1bWVudGFpcmUgQmVoZW1vdGggTGUgZHJhZ29uIG5vaXIgVFZyaXBIRCAuLi4=&s=6a2U5YW9
p23
aaa.